; Function Attrs: mustprogress uwtable
define void @_ZN19OpenColorIO_v2_5dev16GpuShaderCreator21addToHelperShaderCodeEPKc(ptr noundef nonnull readonly align 8 captures(none) dereferenceable(16) %0, ptr noundef %1) unnamed_addr #0 align 2 {
  %3 = getelementptr inbounds nuw i8, ptr %0, i64 8
  %4 = load ptr, ptr %3, align 8, !tbaa !6
  %5 = getelementptr inbounds nuw i8, ptr %4, i64 256
  %6 = load i64, ptr %5, align 8, !tbaa !14
  %7 = icmp eq i64 %6, 0
  br i1 %7, label %_ZNSt7__cxx1112basic_stringIcSt11char_traitsIcESaIcEEpLEPKc.exit, label %10

_ZNSt7__cxx1112basic_stringIcSt11char_traitsIcESaIcEEpLEPKc.exit: ; preds = %2
  %8 = getelementptr inbounds nuw i8, ptr %4, i64 248
  %9 = tail call noundef nonnull align 8 dereferenceable(32) ptr @_ZNSt7__cxx1112basic_stringIcSt11char_traitsIcESaIcEE9_M_appendEPKcm(ptr noundef nonnull align 8 dereferenceable(32) %8, ptr noundef nonnull @.str.10, i64 noundef 39)
  br label %10

10:                                               ; preds = %_ZNSt7__cxx1112basic_stringIcSt11char_traitsIcESaIcEEpLEPKc.exit, %2
  %.not = icmp eq ptr %1, null
  br i1 %.not, label %13, label %11

11:                                               ; preds = %10
  %12 = load i8, ptr %1, align 1, !tbaa !17
  %.not4 = icmp eq i8 %12, 0
  %spec.select = select i1 %.not4, ptr @.str, ptr %1
  br label %13

13:                                               ; preds = %11, %10
  %14 = phi ptr [ @.str, %10 ], [ %spec.select, %11 ]
  %15 = load ptr, ptr %3, align 8, !tbaa !6
  %16 = tail call noundef i64 @strlen(ptr noundef nonnull dereferenceable(1) %14) #26
  %17 = getelementptr inbounds nuw i8, ptr %15, i64 256
  %18 = load i64, ptr %17, align 8, !tbaa !14
  %19 = sub i64 4611686018427387903, %18
  %20 = icmp ult i64 %19, %16
  br i1 %20, label %21, label %_ZNSt7__cxx1112basic_stringIcSt11char_traitsIcESaIcEEpLEPKc.exit5

21:                                               ; preds = %13
  tail call void @_ZSt20__throw_length_errorPKc(ptr noundef nonnull @.str.20) #28
  unreachable

_ZNSt7__cxx1112basic_stringIcSt11char_traitsIcESaIcEEpLEPKc.exit5: ; preds = %13
  %22 = getelementptr inbounds nuw i8, ptr %15, i64 248
  %23 = tail call noundef nonnull align 8 dereferenceable(32) ptr @_ZNSt7__cxx1112basic_stringIcSt11char_traitsIcESaIcEE9_M_appendEPKcm(ptr noundef nonnull align 8 dereferenceable(32) %22, ptr noundef nonnull %14, i64 noundef %16)
  ret void
}